; Function Attrs: mustprogress uwtable
define internal void @_ZL14print_functionPKcPv(ptr noundef %0, ptr nocapture noundef readonly %1) #0 personality ptr @__gxx_personality_v0 {
  %3 = alloca %class.QString, align 16
  %4 = alloca %class.QString, align 16
  call void @llvm.lifetime.start.p0(i64 24, ptr nonnull %3)
  %.not.i.i = icmp eq ptr %0, null
  br i1 %.not.i.i, label %_ZN7QStringC2EPKc.exit, label %.split.i.i

.split.i.i:                                       ; preds = %2
  %5 = tail call noundef i64 @strlen(ptr noundef nonnull dereferenceable(1) %0) #17
  br label %_ZN7QStringC2EPKc.exit

_ZN7QStringC2EPKc.exit:                           ; preds = %2, %.split.i.i
  %.sink5.i.i = phi i64 [ %5, %.split.i.i ], [ 0, %2 ]
  call void @_ZN7QString8fromUtf8E14QByteArrayView(ptr dead_on_unwind nonnull writable sret(%class.QString) align 8 %3, i64 %.sink5.i.i, ptr %0)
  %6 = load <2 x ptr>, ptr %3, align 16
  store <2 x ptr> %6, ptr %4, align 16
  %7 = getelementptr inbounds i8, ptr %4, i64 16
  %8 = getelementptr inbounds i8, ptr %3, i64 16
  %9 = load i64, ptr %8, align 16
  store i64 %9, ptr %7, align 16
  call void @llvm.lifetime.end.p0(i64 24, ptr nonnull %3)
  %10 = getelementptr inbounds i8, ptr %1, i64 64
  %11 = load ptr, ptr %10, align 8
  %12 = getelementptr inbounds i8, ptr %11, i64 32
  %13 = load ptr, ptr %12, align 8
  invoke void @_ZN9QTextEdit6appendERK7QString(ptr noundef nonnull align 8 dereferenceable(40) %13, ptr noundef nonnull align 8 dereferenceable(24) %4)
          to label %_ZN15IOConsoleDialog16appendOutputTextERK7QString.exit unwind label %18

_ZN15IOConsoleDialog16appendOutputTextERK7QString.exit: ; preds = %_ZN7QStringC2EPKc.exit
  %14 = load ptr, ptr %4, align 16
  %.not.i.i.i = icmp eq ptr %14, null
  br i1 %.not.i.i.i, label %_ZN7QStringD2Ev.exit, label %_ZN17QArrayDataPointerIDsE5derefEv.exit.i.i

_ZN17QArrayDataPointerIDsE5derefEv.exit.i.i:      ; preds = %_ZN15IOConsoleDialog16appendOutputTextERK7QString.exit
  %15 = atomicrmw sub ptr %14, i32 1 seq_cst, align 4
  %.not.i.i4 = icmp eq i32 %15, 1
  br i1 %.not.i.i4, label %16, label %_ZN7QStringD2Ev.exit

16:                                               ; preds = %_ZN17QArrayDataPointerIDsE5derefEv.exit.i.i
  %17 = load ptr, ptr %4, align 16
  call void @_ZN10QArrayData10deallocateEPS_xx(ptr noundef %17, i64 noundef 2, i64 noundef 8) #17
  br label %_ZN7QStringD2Ev.exit

_ZN7QStringD2Ev.exit:                             ; preds = %_ZN15IOConsoleDialog16appendOutputTextERK7QString.exit, %_ZN17QArrayDataPointerIDsE5derefEv.exit.i.i, %16
  ret void

18:                                               ; preds = %_ZN7QStringC2EPKc.exit
  %19 = landingpad { ptr, i32 }
          cleanup
  %20 = load ptr, ptr %4, align 16
  %.not.i.i.i5 = icmp eq ptr %20, null
  br i1 %.not.i.i.i5, label %_ZN7QStringD2Ev.exit8, label %_ZN17QArrayDataPointerIDsE5derefEv.exit.i.i6

_ZN17QArrayDataPointerIDsE5derefEv.exit.i.i6:     ; preds = %18
  %21 = atomicrmw sub ptr %20, i32 1 seq_cst, align 4
  %.not.i.i7 = icmp eq i32 %21, 1
  br i1 %.not.i.i7, label %22, label %_ZN7QStringD2Ev.exit8

22:                                               ; preds = %_ZN17QArrayDataPointerIDsE5derefEv.exit.i.i6
  %23 = load ptr, ptr %4, align 16
  call void @_ZN10QArrayData10deallocateEPS_xx(ptr noundef %23, i64 noundef 2, i64 noundef 8) #17
  br label %_ZN7QStringD2Ev.exit8

_ZN7QStringD2Ev.exit8:                            ; preds = %18, %_ZN17QArrayDataPointerIDsE5derefEv.exit.i.i6, %22
  resume { ptr, i32 } %19
}